; Function Attrs: mustprogress uwtable
define internal fastcc noundef nonnull align 8 dereferenceable(8) ptr @_ZN2cv3dnn14dnn4_v20240521lsIiEERSoS3_RKSt6vectorIT_SaIS5_EE(ptr noundef nonnull returned align 8 dereferenceable(8) %0, ptr nocapture noundef nonnull readonly align 8 dereferenceable(24) %1) unnamed_addr #3 personality ptr @__gxx_personality_v0 {
  %3 = alloca %"class.std::__cxx11::basic_ostringstream", align 8
  %4 = alloca %"class.std::__cxx11::basic_string", align 8
  %5 = alloca %"class.std::__cxx11::basic_string", align 8
  %6 = alloca %"class.std::allocator.5", align 1
  call void @_ZNSaIcEC1Ev(ptr noundef nonnull align 1 dereferenceable(1) %6) #24
  invoke void @_ZNSt7__cxx1112basic_stringIcSt11char_traitsIcESaIcEEC1EPKcRKS3_(ptr noundef nonnull align 8 dereferenceable(32) %5, ptr noundef nonnull @.str.38, ptr noundef nonnull align 1 dereferenceable(1) %6)
          to label %7 unwind label %37

7:                                                ; preds = %2
  call void @llvm.lifetime.start.p0(i64 376, ptr nonnull %3)
  invoke void @_ZNSt7__cxx1119basic_ostringstreamIcSt11char_traitsIcESaIcEEC1Ev(ptr noundef nonnull align 8 dereferenceable(112) %3)
          to label %.noexc unwind label %39

.noexc:                                           ; preds = %7
  %8 = call noundef zeroext i1 @_ZNKSt7__cxx1112basic_stringIcSt11char_traitsIcESaIcEE5emptyEv(ptr noundef nonnull align 8 dereferenceable(32) %5) #24, !noalias !35
  br i1 %8, label %14, label %9

9:                                                ; preds = %.noexc
  %10 = invoke noundef nonnull align 8 dereferenceable(8) ptr @_ZStlsIcSt11char_traitsIcESaIcEERSt13basic_ostreamIT_T0_ES7_RKNSt7__cxx1112basic_stringIS4_S5_T1_EE(ptr noundef nonnull align 8 dereferenceable(8) %3, ptr noundef nonnull align 8 dereferenceable(32) %5)
          to label %11 unwind label %.loopexit.split-lp.i, !noalias !35

11:                                               ; preds = %9
  %12 = invoke noundef nonnull align 8 dereferenceable(8) ptr @_ZStlsISt11char_traitsIcEERSt13basic_ostreamIcT_ES5_c(ptr noundef nonnull align 8 dereferenceable(8) %10, i8 noundef signext 32)
          to label %14 unwind label %.loopexit.split-lp.i, !noalias !35

.loopexit.i:                                      ; preds = %25, %.lr.ph.i
  %lpad.loopexit.i = landingpad { ptr, i32 }
          cleanup
  br label %13

.loopexit.split-lp.i:                             ; preds = %33, %._crit_edge.i, %14, %11, %9
  %lpad.loopexit.split-lp.i = landingpad { ptr, i32 }
          cleanup
  br label %13

13:                                               ; preds = %.loopexit.split-lp.i, %.loopexit.i
  %lpad.phi.i = phi { ptr, i32 } [ %lpad.loopexit.i, %.loopexit.i ], [ %lpad.loopexit.split-lp.i, %.loopexit.split-lp.i ]
  call void @_ZNSt7__cxx1119basic_ostringstreamIcSt11char_traitsIcESaIcEED1Ev(ptr noundef nonnull align 8 dereferenceable(112) %3) #24
  br label %.body

14:                                               ; preds = %11, %.noexc
  %15 = invoke noundef nonnull align 8 dereferenceable(8) ptr @_ZStlsISt11char_traitsIcEERSt13basic_ostreamIcT_ES5_c(ptr noundef nonnull align 8 dereferenceable(8) %3, i8 noundef signext 91)
          to label %16 unwind label %.loopexit.split-lp.i, !noalias !35

16:                                               ; preds = %14
  %17 = getelementptr inbounds i8, ptr %1, i64 8
  %18 = load ptr, ptr %17, align 8, !noalias !35
  %19 = load ptr, ptr %1, align 8, !noalias !35
  %.not.i = icmp eq ptr %18, %19
  br i1 %.not.i, label %._crit_edge.i, label %.lr.ph.preheader.i

.lr.ph.preheader.i:                               ; preds = %16
  %20 = ptrtoint ptr %18 to i64
  %21 = ptrtoint ptr %19 to i64
  %22 = sub i64 %20, %21
  %23 = ashr exact i64 %22, 2
  %umax.i = call i64 @llvm.umax.i64(i64 %23, i64 1)
  br label %.lr.ph.i

.lr.ph.i:                                         ; preds = %30, %.lr.ph.preheader.i
  %.09.i = phi i64 [ %31, %30 ], [ 0, %.lr.ph.preheader.i ]
  %24 = invoke noundef nonnull align 8 dereferenceable(8) ptr @_ZStlsISt11char_traitsIcEERSt13basic_ostreamIcT_ES5_c(ptr noundef nonnull align 8 dereferenceable(8) %3, i8 noundef signext 32)
          to label %25 unwind label %.loopexit.i, !noalias !35

25:                                               ; preds = %.lr.ph.i
  %26 = load ptr, ptr %1, align 8, !noalias !35
  %27 = getelementptr inbounds i32, ptr %26, i64 %.09.i
  %28 = load i32, ptr %27, align 4, !noalias !35
  %29 = invoke noundef nonnull align 8 dereferenceable(8) ptr @_ZNSolsEi(ptr noundef nonnull align 8 dereferenceable(8) %24, i32 noundef %28)
          to label %30 unwind label %.loopexit.i, !noalias !35

30:                                               ; preds = %25
  %31 = add nuw i64 %.09.i, 1
  %exitcond.not.i = icmp eq i64 %31, %umax.i
  br i1 %exitcond.not.i, label %._crit_edge.i, label %.lr.ph.i, !llvm.loop !38

._crit_edge.i:                                    ; preds = %30, %16
  %32 = invoke noundef nonnull align 8 dereferenceable(8) ptr @_ZStlsISt11char_traitsIcEERSt13basic_ostreamIcT_ES5_PKc(ptr noundef nonnull align 8 dereferenceable(8) %3, ptr noundef nonnull @.str.103)
          to label %33 unwind label %.loopexit.split-lp.i, !noalias !35

33:                                               ; preds = %._crit_edge.i
  invoke void @_ZNKSt7__cxx1119basic_ostringstreamIcSt11char_traitsIcESaIcEE3strEv(ptr dead_on_unwind nonnull writable sret(%"class.std::__cxx11::basic_string") align 8 %4, ptr noundef nonnull align 8 dereferenceable(112) %3)
          to label %34 unwind label %.loopexit.split-lp.i

34:                                               ; preds = %33
  call void @_ZNSt7__cxx1119basic_ostringstreamIcSt11char_traitsIcESaIcEED1Ev(ptr noundef nonnull align 8 dereferenceable(112) %3) #24
  call void @llvm.lifetime.end.p0(i64 376, ptr nonnull %3)
  %35 = invoke noundef nonnull align 8 dereferenceable(8) ptr @_ZStlsIcSt11char_traitsIcESaIcEERSt13basic_ostreamIT_T0_ES7_RKNSt7__cxx1112basic_stringIS4_S5_T1_EE(ptr noundef nonnull align 8 dereferenceable(8) %0, ptr noundef nonnull align 8 dereferenceable(32) %4)
          to label %36 unwind label %41

36:                                               ; preds = %34
  call void @_ZNSt7__cxx1112basic_stringIcSt11char_traitsIcESaIcEED1Ev(ptr noundef nonnull align 8 dereferenceable(32) %4) #24
  call void @_ZNSt7__cxx1112basic_stringIcSt11char_traitsIcESaIcEED1Ev(ptr noundef nonnull align 8 dereferenceable(32) %5) #24
  call void @_ZNSaIcED1Ev(ptr noundef nonnull align 1 dereferenceable(1) %6) #24
  ret ptr %0

37:                                               ; preds = %2
  %38 = landingpad { ptr, i32 }
          cleanup
  br label %43

39:                                               ; preds = %7
  %40 = landingpad { ptr, i32 }
          cleanup
  br label %.body

41:                                               ; preds = %34
  %42 = landingpad { ptr, i32 }
          cleanup
  call void @_ZNSt7__cxx1112basic_stringIcSt11char_traitsIcESaIcEED1Ev(ptr noundef nonnull align 8 dereferenceable(32) %4) #24
  br label %.body

.body:                                            ; preds = %39, %13, %41
  %.pn = phi { ptr, i32 } [ %42, %41 ], [ %40, %39 ], [ %lpad.phi.i, %13 ]
  call void @_ZNSt7__cxx1112basic_stringIcSt11char_traitsIcESaIcEED1Ev(ptr noundef nonnull align 8 dereferenceable(32) %5) #24
  br label %43

43:                                               ; preds = %.body, %37
  %.pn.pn = phi { ptr, i32 } [ %.pn, %.body ], [ %38, %37 ]
  call void @_ZNSaIcED1Ev(ptr noundef nonnull align 1 dereferenceable(1) %6) #24
  resume { ptr, i32 } %.pn.pn
}